target datalayout = "e-m:e-p270:32:32-p271:32:32-p272:64:64-i64:64-i128:128-f80:128-n8:16:32:64-S128"
target triple = "x86_64-unknown-linux-gnu"

%"class.std::set.0" = type { %"class.std::_Rb_tree.1" }
%"class.std::_Rb_tree.1" = type { %"struct.std::_Rb_tree<QuantLib::Observer *, QuantLib::Observer *, std::_Identity<QuantLib::Observer *>, std::less<QuantLib::Observer *>>::_Rb_tree_impl" }
%"struct.std::_Rb_tree<QuantLib::Observer *, QuantLib::Observer *, std::_Identity<QuantLib::Observer *>, std::less<QuantLib::Observer *>>::_Rb_tree_impl" = type { [8 x i8], %"struct.std::_Rb_tree_header" }
%"struct.std::_Rb_tree_header" = type { %"struct.std::_Rb_tree_node_base", i64 }
%"struct.std::_Rb_tree_node_base" = type { i32, ptr, ptr, ptr }
%"class.std::set" = type { %"class.std::_Rb_tree" }
%"class.std::_Rb_tree" = type { %"struct.std::_Rb_tree<boost::shared_ptr<QuantLib::Observable>, boost::shared_ptr<QuantLib::Observable>, std::_Identity<boost::shared_ptr<QuantLib::Observable>>, std::less<boost::shared_ptr<QuantLib::Observable>>>::_Rb_tree_impl" }
%"struct.std::_Rb_tree<boost::shared_ptr<QuantLib::Observable>, boost::shared_ptr<QuantLib::Observable>, std::_Identity<boost::shared_ptr<QuantLib::Observable>>, std::less<boost::shared_ptr<QuantLib::Observable>>>::_Rb_tree_impl" = type { [8 x i8], %"struct.std::_Rb_tree_header" }
%"class.boost::detail::shared_count" = type { ptr }
%"class.QuantLib::Observable" = type { ptr, %"class.std::set.0" }
%"class.QuantLib::DayCounter" = type { %"class.boost::shared_ptr.16" }
%"class.boost::shared_ptr.16" = type { ptr, %"class.boost::detail::shared_count" }
%"class.QuantLib::Observer" = type { ptr, %"class.std::set" }
%"class.QuantLib::Handle.37" = type { %"class.boost::shared_ptr.38" }
%"class.boost::shared_ptr.38" = type { ptr, %"class.boost::detail::shared_count" }
%"class.QuantLib::SwaptionHelper" = type { %"class.QuantLib::BlackCalibrationHelper.base", %"class.QuantLib::Date", %"class.QuantLib::Date", %"class.QuantLib::Period", %"class.QuantLib::Period", %"class.QuantLib::Period", %"class.boost::shared_ptr.35", %"class.QuantLib::Handle", %"class.QuantLib::DayCounter", %"class.QuantLib::DayCounter", double, double, i32, i32, double, %"class.boost::shared_ptr.39", %"class.boost::shared_ptr.40", %"class.QuantLib::Observable", %"class.QuantLib::Observer" }
%"class.QuantLib::BlackCalibrationHelper.base" = type <{ %"class.QuantLib::LazyObject.base", [4 x i8], %"class.QuantLib::CalibrationHelper", double, %"class.QuantLib::Handle.37", %"class.boost::shared_ptr.24", i32, [4 x i8], double, i32 }>
%"class.QuantLib::LazyObject.base" = type <{ ptr, i8, i8, i8, i8 }>
%"class.QuantLib::CalibrationHelper" = type { ptr }
%"class.boost::shared_ptr.24" = type { ptr, %"class.boost::detail::shared_count" }
%"class.QuantLib::Date" = type { i64 }
%"class.QuantLib::Period" = type { i32, i32 }
%"class.boost::shared_ptr.35" = type { ptr, %"class.boost::detail::shared_count" }
%"class.QuantLib::Handle" = type { %"class.boost::shared_ptr.36" }
%"class.boost::shared_ptr.36" = type { ptr, %"class.boost::detail::shared_count" }
%"class.boost::shared_ptr.39" = type { ptr, %"class.boost::detail::shared_count" }
%"class.boost::shared_ptr.40" = type { ptr, %"class.boost::detail::shared_count" }
%"class.QuantLib::BlackCalibrationHelper" = type <{ %"class.QuantLib::LazyObject.base", [4 x i8], %"class.QuantLib::CalibrationHelper", double, %"class.QuantLib::Handle.37", %"class.boost::shared_ptr.24", i32, [4 x i8], double, i32, [4 x i8], %"class.QuantLib::Observable", %"class.QuantLib::Observer" }>

@.str.15 = private unnamed_addr constant [8 x i8] c"px != 0\00", align 1
@.str.16 = private unnamed_addr constant [102 x i8] c"generated/home/dtcxzyw/WorkSpace/SDK/vcpkg/installed/x64-linux/include/boost/smart_ptr/shared_ptr.hpp\00", align 1
@__PRETTY_FUNCTION__._ZNK5boost10shared_ptrIN8QuantLib8SwaptionEEptEv = private unnamed_addr constant [133 x i8] c"typename boost::detail::sp_member_access<T>::type boost::shared_ptr<QuantLib::Swaption>::operator->() const [T = QuantLib::Swaption]\00", align 1

; Function Attrs: mustprogress uwtable
define linkonce_odr noundef ptr @_ZNK5boost10shared_ptrIN8QuantLib8SwaptionEEptEv(ptr noundef nonnull align 8 dereferenceable(16) %this) #2 comdat align 2 {
entry:
  %this.addr = alloca ptr, align 8
  store ptr %this, ptr %this.addr, align 8, !tbaa !3
  %this1 = load ptr, ptr %this.addr, align 8
  %px = getelementptr inbounds nuw %"class.boost::shared_ptr.40", ptr %this1, i32 0, i32 0
  %0 = load ptr, ptr %px, align 8, !tbaa !76
  %cmp = icmp ne ptr %0, null
  %lnot = xor i1 %cmp, true
  %lnot2 = xor i1 %lnot, true
  %conv = zext i1 %lnot2 to i64
  %expval = call i64 @llvm.expect.i64(i64 %conv, i64 1)
  %tobool = icmp ne i64 %expval, 0
  br i1 %tobool, label %cond.true, label %cond.false

cond.true:                                        ; preds = %entry
  br label %cond.end

cond.false:                                       ; preds = %entry
  call void @_ZN5boost16assertion_failedEPKcS1_S1_l(ptr noundef @.str.15, ptr noundef @__PRETTY_FUNCTION__._ZNK5boost10shared_ptrIN8QuantLib8SwaptionEEptEv, ptr noundef @.str.16, i64 noundef 784)
  br label %cond.end

cond.end:                                         ; preds = %cond.false, %cond.true
  %px3 = getelementptr inbounds nuw %"class.boost::shared_ptr.40", ptr %this1, i32 0, i32 0
  %1 = load ptr, ptr %px3, align 8, !tbaa !76
  ret ptr %1
}

; Function Attrs: mustprogress uwtable
define noundef double @_ZNK8QuantLib14SwaptionHelper10modelValueEv(ptr noundef nonnull align 8 dereferenceable(256) %this) unnamed_addr #2 align 2 {
entry:
  %this.addr = alloca ptr, align 8
  store ptr %this, ptr %this.addr, align 8, !tbaa !3
  %this1 = load ptr, ptr %this.addr, align 8
  %vtable = load ptr, ptr %this1, align 8, !tbaa !12
  %vfn = getelementptr inbounds ptr, ptr %vtable, i64 3
  %0 = load ptr, ptr %vfn, align 8
  call void %0(ptr noundef nonnull align 8 dereferenceable(12) %this1)
  %swaption_ = getelementptr inbounds nuw %"class.QuantLib::SwaptionHelper", ptr %this1, i32 0, i32 16
  %call = call noundef ptr @_ZNK5boost10shared_ptrIN8QuantLib8SwaptionEEptEv(ptr noundef nonnull align 8 dereferenceable(16) %swaption_)
  %engine_ = getelementptr inbounds nuw %"class.QuantLib::BlackCalibrationHelper", ptr %this1, i32 0, i32 5
  call void @_ZN8QuantLib10Instrument16setPricingEngineERKN5boost10shared_ptrINS_13PricingEngineEEE(ptr noundef nonnull align 8 dereferenceable(104) %call, ptr noundef nonnull align 8 dereferenceable(16) %engine_)
  %swaption_2 = getelementptr inbounds nuw %"class.QuantLib::SwaptionHelper", ptr %this1, i32 0, i32 16
  %call3 = call noundef ptr @_ZNK5boost10shared_ptrIN8QuantLib8SwaptionEEptEv(ptr noundef nonnull align 8 dereferenceable(16) %swaption_2)
  %call4 = call noundef double @_ZNK8QuantLib10Instrument3NPVEv(ptr noundef nonnull align 8 dereferenceable(104) %call3)
  ret double %call4
}